target datalayout = "e-m:e-p270:32:32-p271:32:32-p272:64:64-i64:64-i128:128-f80:128-n8:16:32:64-S128"
target triple = "x86_64-unknown-linux-gnu"

%struct.BlockNodeInfo = type { ptr, ptr, i8, i8, i8, i64, i64, i8, i64, i8, i8, i8, i8, ptr, ptr, ptr, i8, ptr, ptr }

@.str.10 = private unnamed_addr constant [7 x i8] c"format\00", align 1
@.str.25 = private unnamed_addr constant [9 x i8] c"filename\00", align 1
@.str.26 = private unnamed_addr constant [13 x i8] c"virtual-size\00", align 1
@.str.27 = private unnamed_addr constant [13 x i8] c"cluster-size\00", align 1
@.str.28 = private unnamed_addr constant [11 x i8] c"compressed\00", align 1
@.str.33 = private unnamed_addr constant [11 x i8] c"dirty-flag\00", align 1
@.str.34 = private unnamed_addr constant [12 x i8] c"actual-size\00", align 1
@.str.35 = private unnamed_addr constant [10 x i8] c"encrypted\00", align 1
@.str.36 = private unnamed_addr constant [17 x i8] c"backing-filename\00", align 1
@.str.37 = private unnamed_addr constant [22 x i8] c"full-backing-filename\00", align 1
@.str.38 = private unnamed_addr constant [24 x i8] c"backing-filename-format\00", align 1
@.str.39 = private unnamed_addr constant [10 x i8] c"snapshots\00", align 1
@.str.40 = private unnamed_addr constant [16 x i8] c"format-specific\00", align 1

; Function Attrs: nounwind sspstrong uwtable
define dso_local zeroext i1 @visit_type_BlockNodeInfo_members(ptr noundef %v, ptr noundef %obj, ptr noundef %errp) #0 {
entry:
  %retval = alloca i1, align 1
  %v.addr = alloca ptr, align 8
  %obj.addr = alloca ptr, align 8
  %errp.addr = alloca ptr, align 8
  %has_backing_filename = alloca i8, align 1
  %has_full_backing_filename = alloca i8, align 1
  %has_backing_filename_format = alloca i8, align 1
  %has_format_specific = alloca i8, align 1
  store ptr %v, ptr %v.addr, align 8
  store ptr %obj, ptr %obj.addr, align 8
  store ptr %errp, ptr %errp.addr, align 8
  %0 = load ptr, ptr %obj.addr, align 8
  %backing_filename = getelementptr inbounds %struct.BlockNodeInfo, ptr %0, i32 0, i32 13
  %1 = load ptr, ptr %backing_filename, align 8
  %tobool = icmp ne ptr %1, null
  %lnot = xor i1 %tobool, true
  %lnot1 = xor i1 %lnot, true
  %frombool = zext i1 %lnot1 to i8
  store i8 %frombool, ptr %has_backing_filename, align 1
  %2 = load ptr, ptr %obj.addr, align 8
  %full_backing_filename = getelementptr inbounds %struct.BlockNodeInfo, ptr %2, i32 0, i32 14
  %3 = load ptr, ptr %full_backing_filename, align 8
  %tobool2 = icmp ne ptr %3, null
  %lnot3 = xor i1 %tobool2, true
  %lnot4 = xor i1 %lnot3, true
  %frombool5 = zext i1 %lnot4 to i8
  store i8 %frombool5, ptr %has_full_backing_filename, align 1
  %4 = load ptr, ptr %obj.addr, align 8
  %backing_filename_format = getelementptr inbounds %struct.BlockNodeInfo, ptr %4, i32 0, i32 15
  %5 = load ptr, ptr %backing_filename_format, align 8
  %tobool6 = icmp ne ptr %5, null
  %lnot7 = xor i1 %tobool6, true
  %lnot8 = xor i1 %lnot7, true
  %frombool9 = zext i1 %lnot8 to i8
  store i8 %frombool9, ptr %has_backing_filename_format, align 1
  %6 = load ptr, ptr %obj.addr, align 8
  %format_specific = getelementptr inbounds %struct.BlockNodeInfo, ptr %6, i32 0, i32 18
  %7 = load ptr, ptr %format_specific, align 8
  %tobool10 = icmp ne ptr %7, null
  %lnot11 = xor i1 %tobool10, true
  %lnot12 = xor i1 %lnot11, true
  %frombool13 = zext i1 %lnot12 to i8
  store i8 %frombool13, ptr %has_format_specific, align 1
  %8 = load ptr, ptr %v.addr, align 8
  %9 = load ptr, ptr %obj.addr, align 8
  %filename = getelementptr inbounds %struct.BlockNodeInfo, ptr %9, i32 0, i32 0
  %10 = load ptr, ptr %errp.addr, align 8
  %call = call zeroext i1 @visit_type_str(ptr noundef %8, ptr noundef @.str.25, ptr noundef %filename, ptr noundef %10)
  br i1 %call, label %if.end, label %if.then

if.then:                                          ; preds = %entry
  store i1 false, ptr %retval, align 1
  br label %return

if.end:                                           ; preds = %entry
  %11 = load ptr, ptr %v.addr, align 8
  %12 = load ptr, ptr %obj.addr, align 8
  %format = getelementptr inbounds %struct.BlockNodeInfo, ptr %12, i32 0, i32 1
  %13 = load ptr, ptr %errp.addr, align 8
  %call14 = call zeroext i1 @visit_type_str(ptr noundef %11, ptr noundef @.str.10, ptr noundef %format, ptr noundef %13)
  br i1 %call14, label %if.end16, label %if.then15

if.then15:                                        ; preds = %if.end
  store i1 false, ptr %retval, align 1
  br label %return

if.end16:                                         ; preds = %if.end
  %14 = load ptr, ptr %v.addr, align 8
  %15 = load ptr, ptr %obj.addr, align 8
  %has_dirty_flag = getelementptr inbounds %struct.BlockNodeInfo, ptr %15, i32 0, i32 2
  %call17 = call zeroext i1 @visit_optional(ptr noundef %14, ptr noundef @.str.33, ptr noundef %has_dirty_flag)
  br i1 %call17, label %if.then18, label %if.end22

if.then18:                                        ; preds = %if.end16
  %16 = load ptr, ptr %v.addr, align 8
  %17 = load ptr, ptr %obj.addr, align 8
  %dirty_flag = getelementptr inbounds %struct.BlockNodeInfo, ptr %17, i32 0, i32 3
  %18 = load ptr, ptr %errp.addr, align 8
  %call19 = call zeroext i1 @visit_type_bool(ptr noundef %16, ptr noundef @.str.33, ptr noundef %dirty_flag, ptr noundef %18)
  br i1 %call19, label %if.end21, label %if.then20

if.then20:                                        ; preds = %if.then18
  store i1 false, ptr %retval, align 1
  br label %return

if.end21:                                         ; preds = %if.then18
  br label %if.end22

if.end22:                                         ; preds = %if.end21, %if.end16
  %19 = load ptr, ptr %v.addr, align 8
  %20 = load ptr, ptr %obj.addr, align 8
  %has_actual_size = getelementptr inbounds %struct.BlockNodeInfo, ptr %20, i32 0, i32 4
  %call23 = call zeroext i1 @visit_optional(ptr noundef %19, ptr noundef @.str.34, ptr noundef %has_actual_size)
  br i1 %call23, label %if.then24, label %if.end28

if.then24:                                        ; preds = %if.end22
  %21 = load ptr, ptr %v.addr, align 8
  %22 = load ptr, ptr %obj.addr, align 8
  %actual_size = getelementptr inbounds %struct.BlockNodeInfo, ptr %22, i32 0, i32 5
  %23 = load ptr, ptr %errp.addr, align 8
  %call25 = call zeroext i1 @visit_type_int(ptr noundef %21, ptr noundef @.str.34, ptr noundef %actual_size, ptr noundef %23)
  br i1 %call25, label %if.end27, label %if.then26

if.then26:                                        ; preds = %if.then24
  store i1 false, ptr %retval, align 1
  br label %return

if.end27:                                         ; preds = %if.then24
  br label %if.end28

if.end28:                                         ; preds = %if.end27, %if.end22
  %24 = load ptr, ptr %v.addr, align 8
  %25 = load ptr, ptr %obj.addr, align 8
  %virtual_size = getelementptr inbounds %struct.BlockNodeInfo, ptr %25, i32 0, i32 6
  %26 = load ptr, ptr %errp.addr, align 8
  %call29 = call zeroext i1 @visit_type_int(ptr noundef %24, ptr noundef @.str.26, ptr noundef %virtual_size, ptr noundef %26)
  br i1 %call29, label %if.end31, label %if.then30

if.then30:                                        ; preds = %if.end28
  store i1 false, ptr %retval, align 1
  br label %return

if.end31:                                         ; preds = %if.end28
  %27 = load ptr, ptr %v.addr, align 8
  %28 = load ptr, ptr %obj.addr, align 8
  %has_cluster_size = getelementptr inbounds %struct.BlockNodeInfo, ptr %28, i32 0, i32 7
  %call32 = call zeroext i1 @visit_optional(ptr noundef %27, ptr noundef @.str.27, ptr noundef %has_cluster_size)
  br i1 %call32, label %if.then33, label %if.end37

if.then33:                                        ; preds = %if.end31
  %29 = load ptr, ptr %v.addr, align 8
  %30 = load ptr, ptr %obj.addr, align 8
  %cluster_size = getelementptr inbounds %struct.BlockNodeInfo, ptr %30, i32 0, i32 8
  %31 = load ptr, ptr %errp.addr, align 8
  %call34 = call zeroext i1 @visit_type_int(ptr noundef %29, ptr noundef @.str.27, ptr noundef %cluster_size, ptr noundef %31)
  br i1 %call34, label %if.end36, label %if.then35

if.then35:                                        ; preds = %if.then33
  store i1 false, ptr %retval, align 1
  br label %return

if.end36:                                         ; preds = %if.then33
  br label %if.end37

if.end37:                                         ; preds = %if.end36, %if.end31
  %32 = load ptr, ptr %v.addr, align 8
  %33 = load ptr, ptr %obj.addr, align 8
  %has_encrypted = getelementptr inbounds %struct.BlockNodeInfo, ptr %33, i32 0, i32 9
  %call38 = call zeroext i1 @visit_optional(ptr noundef %32, ptr noundef @.str.35, ptr noundef %has_encrypted)
  br i1 %call38, label %if.then39, label %if.end43

if.then39:                                        ; preds = %if.end37
  %34 = load ptr, ptr %v.addr, align 8
  %35 = load ptr, ptr %obj.addr, align 8
  %encrypted = getelementptr inbounds %struct.BlockNodeInfo, ptr %35, i32 0, i32 10
  %36 = load ptr, ptr %errp.addr, align 8
  %call40 = call zeroext i1 @visit_type_bool(ptr noundef %34, ptr noundef @.str.35, ptr noundef %encrypted, ptr noundef %36)
  br i1 %call40, label %if.end42, label %if.then41

if.then41:                                        ; preds = %if.then39
  store i1 false, ptr %retval, align 1
  br label %return

if.end42:                                         ; preds = %if.then39
  br label %if.end43

if.end43:                                         ; preds = %if.end42, %if.end37
  %37 = load ptr, ptr %v.addr, align 8
  %38 = load ptr, ptr %obj.addr, align 8
  %has_compressed = getelementptr inbounds %struct.BlockNodeInfo, ptr %38, i32 0, i32 11
  %call44 = call zeroext i1 @visit_optional(ptr noundef %37, ptr noundef @.str.28, ptr noundef %has_compressed)
  br i1 %call44, label %if.then45, label %if.end49

if.then45:                                        ; preds = %if.end43
  %39 = load ptr, ptr %v.addr, align 8
  %40 = load ptr, ptr %obj.addr, align 8
  %compressed = getelementptr inbounds %struct.BlockNodeInfo, ptr %40, i32 0, i32 12
  %41 = load ptr, ptr %errp.addr, align 8
  %call46 = call zeroext i1 @visit_type_bool(ptr noundef %39, ptr noundef @.str.28, ptr noundef %compressed, ptr noundef %41)
  br i1 %call46, label %if.end48, label %if.then47

if.then47:                                        ; preds = %if.then45
  store i1 false, ptr %retval, align 1
  br label %return

if.end48:                                         ; preds = %if.then45
  br label %if.end49

if.end49:                                         ; preds = %if.end48, %if.end43
  %42 = load ptr, ptr %v.addr, align 8
  %call50 = call zeroext i1 @visit_optional(ptr noundef %42, ptr noundef @.str.36, ptr noundef %has_backing_filename)
  br i1 %call50, label %if.then51, label %if.end56

if.then51:                                        ; preds = %if.end49
  %43 = load ptr, ptr %v.addr, align 8
  %44 = load ptr, ptr %obj.addr, align 8
  %backing_filename52 = getelementptr inbounds %struct.BlockNodeInfo, ptr %44, i32 0, i32 13
  %45 = load ptr, ptr %errp.addr, align 8
  %call53 = call zeroext i1 @visit_type_str(ptr noundef %43, ptr noundef @.str.36, ptr noundef %backing_filename52, ptr noundef %45)
  br i1 %call53, label %if.end55, label %if.then54

if.then54:                                        ; preds = %if.then51
  store i1 false, ptr %retval, align 1
  br label %return

if.end55:                                         ; preds = %if.then51
  br label %if.end56

if.end56:                                         ; preds = %if.end55, %if.end49
  %46 = load ptr, ptr %v.addr, align 8
  %call57 = call zeroext i1 @visit_optional(ptr noundef %46, ptr noundef @.str.37, ptr noundef %has_full_backing_filename)
  br i1 %call57, label %if.then58, label %if.end63

if.then58:                                        ; preds = %if.end56
  %47 = load ptr, ptr %v.addr, align 8
  %48 = load ptr, ptr %obj.addr, align 8
  %full_backing_filename59 = getelementptr inbounds %struct.BlockNodeInfo, ptr %48, i32 0, i32 14
  %49 = load ptr, ptr %errp.addr, align 8
  %call60 = call zeroext i1 @visit_type_str(ptr noundef %47, ptr noundef @.str.37, ptr noundef %full_backing_filename59, ptr noundef %49)
  br i1 %call60, label %if.end62, label %if.then61

if.then61:                                        ; preds = %if.then58
  store i1 false, ptr %retval, align 1
  br label %return

if.end62:                                         ; preds = %if.then58
  br label %if.end63

if.end63:                                         ; preds = %if.end62, %if.end56
  %50 = load ptr, ptr %v.addr, align 8
  %call64 = call zeroext i1 @visit_optional(ptr noundef %50, ptr noundef @.str.38, ptr noundef %has_backing_filename_format)
  br i1 %call64, label %if.then65, label %if.end70

if.then65:                                        ; preds = %if.end63
  %51 = load ptr, ptr %v.addr, align 8
  %52 = load ptr, ptr %obj.addr, align 8
  %backing_filename_format66 = getelementptr inbounds %struct.BlockNodeInfo, ptr %52, i32 0, i32 15
  %53 = load ptr, ptr %errp.addr, align 8
  %call67 = call zeroext i1 @visit_type_str(ptr noundef %51, ptr noundef @.str.38, ptr noundef %backing_filename_format66, ptr noundef %53)
  br i1 %call67, label %if.end69, label %if.then68

if.then68:                                        ; preds = %if.then65
  store i1 false, ptr %retval, align 1
  br label %return

if.end69:                                         ; preds = %if.then65
  br label %if.end70

if.end70:                                         ; preds = %if.end69, %if.end63
  %54 = load ptr, ptr %v.addr, align 8
  %55 = load ptr, ptr %obj.addr, align 8
  %has_snapshots = getelementptr inbounds %struct.BlockNodeInfo, ptr %55, i32 0, i32 16
  %call71 = call zeroext i1 @visit_optional(ptr noundef %54, ptr noundef @.str.39, ptr noundef %has_snapshots)
  br i1 %call71, label %if.then72, label %if.end76

if.then72:                                        ; preds = %if.end70
  %56 = load ptr, ptr %v.addr, align 8
  %57 = load ptr, ptr %obj.addr, align 8
  %snapshots = getelementptr inbounds %struct.BlockNodeInfo, ptr %57, i32 0, i32 17
  %58 = load ptr, ptr %errp.addr, align 8
  %call73 = call zeroext i1 @visit_type_SnapshotInfoList(ptr noundef %56, ptr noundef @.str.39, ptr noundef %snapshots, ptr noundef %58)
  br i1 %call73, label %if.end75, label %if.then74

if.then74:                                        ; preds = %if.then72
  store i1 false, ptr %retval, align 1
  br label %return

if.end75:                                         ; preds = %if.then72
  br label %if.end76

if.end76:                                         ; preds = %if.end75, %if.end70
  %59 = load ptr, ptr %v.addr, align 8
  %call77 = call zeroext i1 @visit_optional(ptr noundef %59, ptr noundef @.str.40, ptr noundef %has_format_specific)
  br i1 %call77, label %if.then78, label %if.end83

if.then78:                                        ; preds = %if.end76
  %60 = load ptr, ptr %v.addr, align 8
  %61 = load ptr, ptr %obj.addr, align 8
  %format_specific79 = getelementptr inbounds %struct.BlockNodeInfo, ptr %61, i32 0, i32 18
  %62 = load ptr, ptr %errp.addr, align 8
  %call80 = call zeroext i1 @visit_type_ImageInfoSpecific(ptr noundef %60, ptr noundef @.str.40, ptr noundef %format_specific79, ptr noundef %62)
  br i1 %call80, label %if.end82, label %if.then81

if.then81:                                        ; preds = %if.then78
  store i1 false, ptr %retval, align 1
  br label %return

if.end82:                                         ; preds = %if.then78
  br label %if.end83

if.end83:                                         ; preds = %if.end82, %if.end76
  store i1 true, ptr %retval, align 1
  br label %return

return:                                           ; preds = %if.end83, %if.then81, %if.then74, %if.then68, %if.then61, %if.then54, %if.then47, %if.then41, %if.then35, %if.then30, %if.then26, %if.then20, %if.then15, %if.then
  %63 = load i1, ptr %retval, align 1
  ret i1 %63
}