; Function Attrs: nounwind sspstrong uwtable
define dso_local noundef zeroext i1 @visit_type_BlockNodeInfo_members(ptr noundef %v, ptr noundef %obj, ptr noundef %errp) local_unnamed_addr #0 {
entry:
  %has_backing_filename = alloca i8, align 1
  %has_full_backing_filename = alloca i8, align 1
  %has_backing_filename_format = alloca i8, align 1
  %has_format_specific = alloca i8, align 1
  %backing_filename = getelementptr inbounds nuw i8, ptr %obj, i64 64
  %0 = load ptr, ptr %backing_filename, align 8
  %tobool = icmp ne ptr %0, null
  %frombool = zext i1 %tobool to i8
  store i8 %frombool, ptr %has_backing_filename, align 1
  %full_backing_filename = getelementptr inbounds nuw i8, ptr %obj, i64 72
  %1 = load ptr, ptr %full_backing_filename, align 8
  %tobool2 = icmp ne ptr %1, null
  %frombool5 = zext i1 %tobool2 to i8
  store i8 %frombool5, ptr %has_full_backing_filename, align 1
  %backing_filename_format = getelementptr inbounds nuw i8, ptr %obj, i64 80
  %2 = load ptr, ptr %backing_filename_format, align 8
  %tobool6 = icmp ne ptr %2, null
  %frombool9 = zext i1 %tobool6 to i8
  store i8 %frombool9, ptr %has_backing_filename_format, align 1
  %format_specific = getelementptr inbounds nuw i8, ptr %obj, i64 104
  %3 = load ptr, ptr %format_specific, align 8
  %tobool10 = icmp ne ptr %3, null
  %frombool13 = zext i1 %tobool10 to i8
  store i8 %frombool13, ptr %has_format_specific, align 1
  %call = tail call zeroext i1 @visit_type_str(ptr noundef %v, ptr noundef nonnull @.str.25, ptr noundef %obj, ptr noundef %errp) #5
  br i1 %call, label %if.end, label %return

if.end:                                           ; preds = %entry
  %format = getelementptr inbounds nuw i8, ptr %obj, i64 8
  %call14 = tail call zeroext i1 @visit_type_str(ptr noundef %v, ptr noundef nonnull @.str.10, ptr noundef nonnull %format, ptr noundef %errp) #5
  br i1 %call14, label %if.end16, label %return

if.end16:                                         ; preds = %if.end
  %has_dirty_flag = getelementptr inbounds nuw i8, ptr %obj, i64 16
  %call17 = tail call zeroext i1 @visit_optional(ptr noundef %v, ptr noundef nonnull @.str.33, ptr noundef nonnull %has_dirty_flag) #5
  br i1 %call17, label %if.then18, label %if.end22

if.then18:                                        ; preds = %if.end16
  %dirty_flag = getelementptr inbounds nuw i8, ptr %obj, i64 17
  %call19 = tail call zeroext i1 @visit_type_bool(ptr noundef %v, ptr noundef nonnull @.str.33, ptr noundef nonnull %dirty_flag, ptr noundef %errp) #5
  br i1 %call19, label %if.end22, label %return

if.end22:                                         ; preds = %if.then18, %if.end16
  %has_actual_size = getelementptr inbounds nuw i8, ptr %obj, i64 18
  %call23 = tail call zeroext i1 @visit_optional(ptr noundef %v, ptr noundef nonnull @.str.34, ptr noundef nonnull %has_actual_size) #5
  br i1 %call23, label %if.then24, label %if.end28

if.then24:                                        ; preds = %if.end22
  %actual_size = getelementptr inbounds nuw i8, ptr %obj, i64 24
  %call25 = tail call zeroext i1 @visit_type_int(ptr noundef %v, ptr noundef nonnull @.str.34, ptr noundef nonnull %actual_size, ptr noundef %errp) #5
  br i1 %call25, label %if.end28, label %return

if.end28:                                         ; preds = %if.then24, %if.end22
  %virtual_size = getelementptr inbounds nuw i8, ptr %obj, i64 32
  %call29 = tail call zeroext i1 @visit_type_int(ptr noundef %v, ptr noundef nonnull @.str.26, ptr noundef nonnull %virtual_size, ptr noundef %errp) #5
  br i1 %call29, label %if.end31, label %return

if.end31:                                         ; preds = %if.end28
  %has_cluster_size = getelementptr inbounds nuw i8, ptr %obj, i64 40
  %call32 = tail call zeroext i1 @visit_optional(ptr noundef %v, ptr noundef nonnull @.str.27, ptr noundef nonnull %has_cluster_size) #5
  br i1 %call32, label %if.then33, label %if.end37

if.then33:                                        ; preds = %if.end31
  %cluster_size = getelementptr inbounds nuw i8, ptr %obj, i64 48
  %call34 = tail call zeroext i1 @visit_type_int(ptr noundef %v, ptr noundef nonnull @.str.27, ptr noundef nonnull %cluster_size, ptr noundef %errp) #5
  br i1 %call34, label %if.end37, label %return

if.end37:                                         ; preds = %if.then33, %if.end31
  %has_encrypted = getelementptr inbounds nuw i8, ptr %obj, i64 56
  %call38 = tail call zeroext i1 @visit_optional(ptr noundef %v, ptr noundef nonnull @.str.35, ptr noundef nonnull %has_encrypted) #5
  br i1 %call38, label %if.then39, label %if.end43

if.then39:                                        ; preds = %if.end37
  %encrypted = getelementptr inbounds nuw i8, ptr %obj, i64 57
  %call40 = tail call zeroext i1 @visit_type_bool(ptr noundef %v, ptr noundef nonnull @.str.35, ptr noundef nonnull %encrypted, ptr noundef %errp) #5
  br i1 %call40, label %if.end43, label %return

if.end43:                                         ; preds = %if.then39, %if.end37
  %has_compressed = getelementptr inbounds nuw i8, ptr %obj, i64 58
  %call44 = tail call zeroext i1 @visit_optional(ptr noundef %v, ptr noundef nonnull @.str.28, ptr noundef nonnull %has_compressed) #5
  br i1 %call44, label %if.then45, label %if.end49

if.then45:                                        ; preds = %if.end43
  %compressed = getelementptr inbounds nuw i8, ptr %obj, i64 59
  %call46 = tail call zeroext i1 @visit_type_bool(ptr noundef %v, ptr noundef nonnull @.str.28, ptr noundef nonnull %compressed, ptr noundef %errp) #5
  br i1 %call46, label %if.end49, label %return

if.end49:                                         ; preds = %if.then45, %if.end43
  %call50 = call zeroext i1 @visit_optional(ptr noundef %v, ptr noundef nonnull @.str.36, ptr noundef nonnull %has_backing_filename) #5
  br i1 %call50, label %if.then51, label %if.end56

if.then51:                                        ; preds = %if.end49
  %call53 = call zeroext i1 @visit_type_str(ptr noundef %v, ptr noundef nonnull @.str.36, ptr noundef nonnull %backing_filename, ptr noundef %errp) #5
  br i1 %call53, label %if.end56, label %return

if.end56:                                         ; preds = %if.then51, %if.end49
  %call57 = call zeroext i1 @visit_optional(ptr noundef %v, ptr noundef nonnull @.str.37, ptr noundef nonnull %has_full_backing_filename) #5
  br i1 %call57, label %if.then58, label %if.end63

if.then58:                                        ; preds = %if.end56
  %call60 = call zeroext i1 @visit_type_str(ptr noundef %v, ptr noundef nonnull @.str.37, ptr noundef nonnull %full_backing_filename, ptr noundef %errp) #5
  br i1 %call60, label %if.end63, label %return

if.end63:                                         ; preds = %if.then58, %if.end56
  %call64 = call zeroext i1 @visit_optional(ptr noundef %v, ptr noundef nonnull @.str.38, ptr noundef nonnull %has_backing_filename_format) #5
  br i1 %call64, label %if.then65, label %if.end70

if.then65:                                        ; preds = %if.end63
  %call67 = call zeroext i1 @visit_type_str(ptr noundef %v, ptr noundef nonnull @.str.38, ptr noundef nonnull %backing_filename_format, ptr noundef %errp) #5
  br i1 %call67, label %if.end70, label %return

if.end70:                                         ; preds = %if.then65, %if.end63
  %has_snapshots = getelementptr inbounds nuw i8, ptr %obj, i64 88
  %call71 = call zeroext i1 @visit_optional(ptr noundef %v, ptr noundef nonnull @.str.39, ptr noundef nonnull %has_snapshots) #5
  br i1 %call71, label %if.then72, label %if.end76

if.then72:                                        ; preds = %if.end70
  %snapshots = getelementptr inbounds nuw i8, ptr %obj, i64 96
  %call73 = call zeroext i1 @visit_type_SnapshotInfoList(ptr noundef %v, ptr noundef nonnull @.str.39, ptr noundef nonnull %snapshots, ptr noundef %errp)
  br i1 %call73, label %if.end76, label %return

if.end76:                                         ; preds = %if.then72, %if.end70
  %call77 = call zeroext i1 @visit_optional(ptr noundef %v, ptr noundef nonnull @.str.40, ptr noundef nonnull %has_format_specific) #5
  br i1 %call77, label %if.then78, label %if.end83

if.then78:                                        ; preds = %if.end76
  %call80 = call zeroext i1 @visit_type_ImageInfoSpecific(ptr noundef %v, ptr noundef nonnull @.str.40, ptr noundef nonnull %format_specific, ptr noundef %errp)
  br i1 %call80, label %if.end83, label %return

if.end83:                                         ; preds = %if.then78, %if.end76
  br label %return

return:                                           ; preds = %if.then78, %if.then72, %if.then65, %if.then58, %if.then51, %if.then45, %if.then39, %if.then33, %if.end28, %if.then24, %if.then18, %if.end, %entry, %if.end83
  %retval.0 = phi i1 [ true, %if.end83 ], [ false, %entry ], [ false, %if.end ], [ false, %if.then18 ], [ false, %if.then24 ], [ false, %if.end28 ], [ false, %if.then33 ], [ false, %if.then39 ], [ false, %if.then45 ], [ false, %if.then51 ], [ false, %if.then58 ], [ false, %if.then65 ], [ false, %if.then72 ], [ false, %if.then78 ]
  ret i1 %retval.0
}